; Function Attrs: mustprogress uwtable
define hidden void @_ZN7datalog7context15transform_rulesEPNS_16rule_transformer6pluginE(ptr noundef nonnull align 8 dereferenceable(3556) %this, ptr noundef %plugin) local_unnamed_addr #3 align 2 personality ptr @__gxx_personality_v0 {
entry:
  %transformer = alloca %"class.datalog::rule_transformer", align 8
  %m_enable_bind_variables = getelementptr inbounds i8, ptr %this, i64 3514
  %0 = load i8, ptr %m_enable_bind_variables, align 2
  %1 = and i8 %0, 1
  store i8 0, ptr %m_enable_bind_variables, align 2
  invoke void @_ZN7datalog16rule_transformerC1ERNS_7contextE(ptr noundef nonnull align 8 dereferenceable(32) %transformer, ptr noundef nonnull align 8 dereferenceable(3556) %this)
          to label %invoke.cont unwind label %lpad

invoke.cont:                                      ; preds = %entry
  invoke void @_ZN7datalog16rule_transformer15register_pluginEPNS0_6pluginE(ptr noundef nonnull align 8 dereferenceable(32) %transformer, ptr noundef %plugin)
          to label %invoke.cont3 unwind label %lpad2

invoke.cont3:                                     ; preds = %invoke.cont
  %m_rule_set.i = getelementptr inbounds i8, ptr %this, i64 2888
  %call.i2 = invoke noundef zeroext i1 @_ZN7datalog16rule_transformerclERNS_8rule_setE(ptr noundef nonnull align 8 dereferenceable(32) %transformer, ptr noundef nonnull align 8 dereferenceable(248) %m_rule_set.i)
          to label %call.i.noexc unwind label %lpad2

call.i.noexc:                                     ; preds = %invoke.cont3
  br i1 %call.i2, label %if.then.i, label %invoke.cont4

if.then.i:                                        ; preds = %call.i.noexc
  invoke void @_ZN7datalog8rule_set13ensure_closedEv(ptr noundef nonnull align 8 dereferenceable(248) %m_rule_set.i)
          to label %invoke.cont4 unwind label %lpad2

invoke.cont4:                                     ; preds = %call.i.noexc, %if.then.i
  call void @_ZN7datalog16rule_transformerD1Ev(ptr noundef nonnull align 8 dereferenceable(32) %transformer) #25
  store i8 %1, ptr %m_enable_bind_variables, align 2
  ret void

lpad:                                             ; preds = %entry
  %2 = landingpad { ptr, i32 }
          cleanup
  br label %ehcleanup

lpad2:                                            ; preds = %if.then.i, %invoke.cont3, %invoke.cont
  %3 = landingpad { ptr, i32 }
          cleanup
  call void @_ZN7datalog16rule_transformerD1Ev(ptr noundef nonnull align 8 dereferenceable(32) %transformer) #25
  br label %ehcleanup

ehcleanup:                                        ; preds = %lpad2, %lpad
  %.pn = phi { ptr, i32 } [ %3, %lpad2 ], [ %2, %lpad ]
  store i8 %1, ptr %m_enable_bind_variables, align 2
  resume { ptr, i32 } %.pn
}